target datalayout = "e-m:e-p270:32:32-p271:32:32-p272:64:64-i64:64-i128:128-f80:128-n8:16:32:64-S128"
target triple = "x86_64-pc-linux-gnu"

%struct.Fxch_Man_t_ = type { ptr, i32, i32, ptr, ptr, ptr, ptr, ptr, ptr, ptr, ptr, ptr, ptr, ptr, ptr, i32, ptr, ptr, ptr, ptr, ptr, ptr, ptr, i64, i64, i32, i32, i32, i32, i32 }
%struct.Vec_Wec_t_ = type { i32, i32, ptr }
%struct.Vec_Int_t_ = type { i32, i32, ptr }

; Function Attrs: inlinehint nounwind uwtable
define internal i32 @Fxch_ManSCAddRemove(ptr noundef %0, i32 noundef %1, i32 noundef %2, i32 noundef %3, i32 noundef %4, i8 noundef signext %5, i8 noundef signext %6) #3 {
  %8 = alloca ptr, align 8
  %9 = alloca i32, align 4
  %10 = alloca i32, align 4
  %11 = alloca i32, align 4
  %12 = alloca i32, align 4
  %13 = alloca i8, align 1
  %14 = alloca i8, align 1
  %15 = alloca i32, align 4
  store ptr %0, ptr %8, align 8, !tbaa !8
  store i32 %1, ptr %9, align 4, !tbaa !33
  store i32 %2, ptr %10, align 4, !tbaa !33
  store i32 %3, ptr %11, align 4, !tbaa !33
  store i32 %4, ptr %12, align 4, !tbaa !33
  store i8 %5, ptr %13, align 1, !tbaa !139
  store i8 %6, ptr %14, align 1, !tbaa !139
  call void @llvm.lifetime.start.p0(i64 4, ptr %15) #10
  store i32 0, ptr %15, align 4, !tbaa !33
  %16 = load i8, ptr %13, align 1, !tbaa !139
  %17 = icmp ne i8 %16, 0
  br i1 %17, label %18, label %31

18:                                               ; preds = %7
  %19 = load ptr, ptr %8, align 8, !tbaa !8
  %20 = getelementptr inbounds nuw %struct.Fxch_Man_t_, ptr %19, i32 0, i32 3
  %21 = load ptr, ptr %20, align 8, !tbaa !74
  %22 = load ptr, ptr %8, align 8, !tbaa !8
  %23 = getelementptr inbounds nuw %struct.Fxch_Man_t_, ptr %22, i32 0, i32 0
  %24 = load ptr, ptr %23, align 8, !tbaa !10
  %25 = load i32, ptr %9, align 4, !tbaa !33
  %26 = load i32, ptr %10, align 4, !tbaa !33
  %27 = load i32, ptr %11, align 4, !tbaa !33
  %28 = load i32, ptr %12, align 4, !tbaa !33
  %29 = load i8, ptr %14, align 1, !tbaa !139
  %30 = call i32 @Fxch_SCHashTableInsert(ptr noundef %21, ptr noundef %24, i32 noundef %25, i32 noundef %26, i32 noundef %27, i32 noundef %28, i8 noundef signext %29)
  store i32 %30, ptr %15, align 4, !tbaa !33
  br label %44

31:                                               ; preds = %7
  %32 = load ptr, ptr %8, align 8, !tbaa !8
  %33 = getelementptr inbounds nuw %struct.Fxch_Man_t_, ptr %32, i32 0, i32 3
  %34 = load ptr, ptr %33, align 8, !tbaa !74
  %35 = load ptr, ptr %8, align 8, !tbaa !8
  %36 = getelementptr inbounds nuw %struct.Fxch_Man_t_, ptr %35, i32 0, i32 0
  %37 = load ptr, ptr %36, align 8, !tbaa !10
  %38 = load i32, ptr %9, align 4, !tbaa !33
  %39 = load i32, ptr %10, align 4, !tbaa !33
  %40 = load i32, ptr %11, align 4, !tbaa !33
  %41 = load i32, ptr %12, align 4, !tbaa !33
  %42 = load i8, ptr %14, align 1, !tbaa !139
  %43 = call i32 @Fxch_SCHashTableRemove(ptr noundef %34, ptr noundef %37, i32 noundef %38, i32 noundef %39, i32 noundef %40, i32 noundef %41, i8 noundef signext %42)
  store i32 %43, ptr %15, align 4, !tbaa !33
  br label %44

44:                                               ; preds = %31, %18
  %45 = load i32, ptr %15, align 4, !tbaa !33
  call void @llvm.lifetime.end.p0(i64 4, ptr %15) #10
  ret i32 %45
}

; Function Attrs: inlinehint nounwind uwtable
define internal i32 @Vec_IntEntry(ptr noundef %0, i32 noundef %1) #3 {
  %3 = alloca ptr, align 8
  %4 = alloca i32, align 4
  store ptr %0, ptr %3, align 8, !tbaa !48
  store i32 %1, ptr %4, align 4, !tbaa !33
  %5 = load ptr, ptr %3, align 8, !tbaa !48
  %6 = getelementptr inbounds nuw %struct.Vec_Int_t_, ptr %5, i32 0, i32 2
  %7 = load ptr, ptr %6, align 8, !tbaa !51
  %8 = load i32, ptr %4, align 4, !tbaa !33
  %9 = sext i32 %8 to i64
  %10 = getelementptr inbounds i32, ptr %7, i64 %9
  %11 = load i32, ptr %10, align 4, !tbaa !33
  ret i32 %11
}

; Function Attrs: inlinehint nounwind uwtable
define internal i32 @Vec_IntSize(ptr noundef %0) #3 {
  %2 = alloca ptr, align 8
  store ptr %0, ptr %2, align 8, !tbaa !48
  %3 = load ptr, ptr %2, align 8, !tbaa !48
  %4 = getelementptr inbounds nuw %struct.Vec_Int_t_, ptr %3, i32 0, i32 1
  %5 = load i32, ptr %4, align 4, !tbaa !49
  ret i32 %5
}

; Function Attrs: inlinehint nounwind uwtable
define internal ptr @Vec_WecEntry(ptr noundef %0, i32 noundef %1) #3 {
  %3 = alloca ptr, align 8
  %4 = alloca i32, align 4
  store ptr %0, ptr %3, align 8, !tbaa !3
  store i32 %1, ptr %4, align 4, !tbaa !33
  %5 = load ptr, ptr %3, align 8, !tbaa !3
  %6 = getelementptr inbounds nuw %struct.Vec_Wec_t_, ptr %5, i32 0, i32 2
  %7 = load ptr, ptr %6, align 8, !tbaa !47
  %8 = load i32, ptr %4, align 4, !tbaa !33
  %9 = sext i32 %8 to i64
  %10 = getelementptr inbounds %struct.Vec_Int_t_, ptr %7, i64 %9
  ret ptr %10
}

; Function Attrs: inlinehint nounwind uwtable
define internal void @Fxch_ManDivDoubleCube(ptr noundef %0, i32 noundef %1, i32 noundef %2, i32 noundef %3) #3 {
  %5 = alloca ptr, align 8
  %6 = alloca i32, align 4
  %7 = alloca i32, align 4
  %8 = alloca i32, align 4
  %9 = alloca ptr, align 8
  %10 = alloca ptr, align 8
  %11 = alloca i32, align 4
  %12 = alloca i32, align 4
  %13 = alloca i32, align 4
  %14 = alloca i32, align 4
  %15 = alloca i32, align 4
  store ptr %0, ptr %5, align 8, !tbaa !8
  store i32 %1, ptr %6, align 4, !tbaa !33
  store i32 %2, ptr %7, align 4, !tbaa !33
  store i32 %3, ptr %8, align 4, !tbaa !33
  call void @llvm.lifetime.start.p0(i64 8, ptr %9) #10
  %16 = load ptr, ptr %5, align 8, !tbaa !8
  %17 = getelementptr inbounds nuw %struct.Fxch_Man_t_, ptr %16, i32 0, i32 6
  %18 = load ptr, ptr %17, align 8, !tbaa !54
  store ptr %18, ptr %9, align 8, !tbaa !48
  call void @llvm.lifetime.start.p0(i64 8, ptr %10) #10
  %19 = load ptr, ptr %5, align 8, !tbaa !8
  %20 = getelementptr inbounds nuw %struct.Fxch_Man_t_, ptr %19, i32 0, i32 0
  %21 = load ptr, ptr %20, align 8, !tbaa !10
  %22 = load i32, ptr %6, align 4, !tbaa !33
  %23 = call ptr @Vec_WecEntry(ptr noundef %21, i32 noundef %22)
  store ptr %23, ptr %10, align 8, !tbaa !48
  call void @llvm.lifetime.start.p0(i64 4, ptr %11) #10
  store i32 0, ptr %11, align 4, !tbaa !33
  call void @llvm.lifetime.start.p0(i64 4, ptr %12) #10
  call void @llvm.lifetime.start.p0(i64 4, ptr %13) #10
  store i32 1, ptr %12, align 4, !tbaa !33
  br label %24

24:                                               ; preds = %41, %4
  %25 = load i32, ptr %12, align 4, !tbaa !33
  %26 = load ptr, ptr %10, align 8, !tbaa !48
  %27 = call i32 @Vec_IntSize(ptr noundef %26)
  %28 = icmp slt i32 %25, %27
  br i1 %28, label %29, label %33

29:                                               ; preds = %24
  %30 = load ptr, ptr %10, align 8, !tbaa !48
  %31 = load i32, ptr %12, align 4, !tbaa !33
  %32 = call i32 @Vec_IntEntry(ptr noundef %30, i32 noundef %31)
  store i32 %32, ptr %13, align 4, !tbaa !33
  br label %33

33:                                               ; preds = %29, %24
  %34 = phi i1 [ false, %24 ], [ true, %29 ]
  br i1 %34, label %35, label %44

35:                                               ; preds = %33
  %36 = load ptr, ptr %9, align 8, !tbaa !48
  %37 = load i32, ptr %13, align 4, !tbaa !33
  %38 = call i32 @Vec_IntEntry(ptr noundef %36, i32 noundef %37)
  %39 = load i32, ptr %11, align 4, !tbaa !33
  %40 = add nsw i32 %39, %38
  store i32 %40, ptr %11, align 4, !tbaa !33
  br label %41

41:                                               ; preds = %35
  %42 = load i32, ptr %12, align 4, !tbaa !33
  %43 = add nsw i32 %42, 1
  store i32 %43, ptr %12, align 4, !tbaa !33
  br label %24, !llvm.loop !88

44:                                               ; preds = %33
  %45 = load ptr, ptr %5, align 8, !tbaa !8
  %46 = load i32, ptr %11, align 4, !tbaa !33
  %47 = load i32, ptr %6, align 4, !tbaa !33
  %48 = load i32, ptr %7, align 4, !tbaa !33
  %49 = trunc i32 %48 to i8
  %50 = load i32, ptr %8, align 4, !tbaa !33
  %51 = trunc i32 %50 to i8
  %52 = call i32 @Fxch_ManSCAddRemove(ptr noundef %45, i32 noundef %46, i32 noundef %47, i32 noundef 0, i32 noundef 0, i8 noundef signext %49, i8 noundef signext %51)
  store i32 1, ptr %12, align 4, !tbaa !33
  br label %53

53:                                               ; preds = %135, %44
  %54 = load i32, ptr %12, align 4, !tbaa !33
  %55 = load ptr, ptr %10, align 8, !tbaa !48
  %56 = call i32 @Vec_IntSize(ptr noundef %55)
  %57 = icmp slt i32 %54, %56
  br i1 %57, label %58, label %62

58:                                               ; preds = %53
  %59 = load ptr, ptr %10, align 8, !tbaa !48
  %60 = load i32, ptr %12, align 4, !tbaa !33
  %61 = call i32 @Vec_IntEntry(ptr noundef %59, i32 noundef %60)
  store i32 %61, ptr %13, align 4, !tbaa !33
  br label %62

62:                                               ; preds = %58, %53
  %63 = phi i1 [ false, %53 ], [ true, %58 ]
  br i1 %63, label %64, label %138

64:                                               ; preds = %62
  %65 = load ptr, ptr %9, align 8, !tbaa !48
  %66 = load i32, ptr %13, align 4, !tbaa !33
  %67 = call i32 @Vec_IntEntry(ptr noundef %65, i32 noundef %66)
  %68 = load i32, ptr %11, align 4, !tbaa !33
  %69 = sub nsw i32 %68, %67
  store i32 %69, ptr %11, align 4, !tbaa !33
  %70 = load ptr, ptr %5, align 8, !tbaa !8
  %71 = load i32, ptr %11, align 4, !tbaa !33
  %72 = load i32, ptr %6, align 4, !tbaa !33
  %73 = load i32, ptr %12, align 4, !tbaa !33
  %74 = load i32, ptr %7, align 4, !tbaa !33
  %75 = trunc i32 %74 to i8
  %76 = load i32, ptr %8, align 4, !tbaa !33
  %77 = trunc i32 %76 to i8
  %78 = call i32 @Fxch_ManSCAddRemove(ptr noundef %70, i32 noundef %71, i32 noundef %72, i32 noundef %73, i32 noundef 0, i8 noundef signext %75, i8 noundef signext %77)
  %79 = load ptr, ptr %5, align 8, !tbaa !8
  %80 = getelementptr inbounds nuw %struct.Fxch_Man_t_, ptr %79, i32 0, i32 28
  %81 = load i32, ptr %80, align 4, !tbaa !89
  %82 = add nsw i32 %81, %78
  store i32 %82, ptr %80, align 4, !tbaa !89
  %83 = load ptr, ptr %10, align 8, !tbaa !48
  %84 = call i32 @Vec_IntSize(ptr noundef %83)
  %85 = icmp sge i32 %84, 3
  br i1 %85, label %86, label %129

86:                                               ; preds = %64
  call void @llvm.lifetime.start.p0(i64 4, ptr %14) #10
  call void @llvm.lifetime.start.p0(i64 4, ptr %15) #10
  %87 = load i32, ptr %12, align 4, !tbaa !33
  %88 = add nsw i32 %87, 1
  store i32 %88, ptr %15, align 4, !tbaa !33
  br label %89

89:                                               ; preds = %125, %86
  %90 = load i32, ptr %15, align 4, !tbaa !33
  %91 = load ptr, ptr %10, align 8, !tbaa !48
  %92 = call i32 @Vec_IntSize(ptr noundef %91)
  %93 = icmp slt i32 %90, %92
  br i1 %93, label %94, label %98

94:                                               ; preds = %89
  %95 = load ptr, ptr %10, align 8, !tbaa !48
  %96 = load i32, ptr %15, align 4, !tbaa !33
  %97 = call i32 @Vec_IntEntry(ptr noundef %95, i32 noundef %96)
  store i32 %97, ptr %14, align 4, !tbaa !33
  br label %98

98:                                               ; preds = %94, %89
  %99 = phi i1 [ false, %89 ], [ true, %94 ]
  br i1 %99, label %100, label %128

100:                                              ; preds = %98
  %101 = load ptr, ptr %9, align 8, !tbaa !48
  %102 = load i32, ptr %14, align 4, !tbaa !33
  %103 = call i32 @Vec_IntEntry(ptr noundef %101, i32 noundef %102)
  %104 = load i32, ptr %11, align 4, !tbaa !33
  %105 = sub nsw i32 %104, %103
  store i32 %105, ptr %11, align 4, !tbaa !33
  %106 = load ptr, ptr %5, align 8, !tbaa !8
  %107 = load i32, ptr %11, align 4, !tbaa !33
  %108 = load i32, ptr %6, align 4, !tbaa !33
  %109 = load i32, ptr %12, align 4, !tbaa !33
  %110 = load i32, ptr %15, align 4, !tbaa !33
  %111 = load i32, ptr %7, align 4, !tbaa !33
  %112 = trunc i32 %111 to i8
  %113 = load i32, ptr %8, align 4, !tbaa !33
  %114 = trunc i32 %113 to i8
  %115 = call i32 @Fxch_ManSCAddRemove(ptr noundef %106, i32 noundef %107, i32 noundef %108, i32 noundef %109, i32 noundef %110, i8 noundef signext %112, i8 noundef signext %114)
  %116 = load ptr, ptr %5, align 8, !tbaa !8
  %117 = getelementptr inbounds nuw %struct.Fxch_Man_t_, ptr %116, i32 0, i32 28
  %118 = load i32, ptr %117, align 4, !tbaa !89
  %119 = add nsw i32 %118, %115
  store i32 %119, ptr %117, align 4, !tbaa !89
  %120 = load ptr, ptr %9, align 8, !tbaa !48
  %121 = load i32, ptr %14, align 4, !tbaa !33
  %122 = call i32 @Vec_IntEntry(ptr noundef %120, i32 noundef %121)
  %123 = load i32, ptr %11, align 4, !tbaa !33
  %124 = add nsw i32 %123, %122
  store i32 %124, ptr %11, align 4, !tbaa !33
  br label %125

125:                                              ; preds = %100
  %126 = load i32, ptr %15, align 4, !tbaa !33
  %127 = add nsw i32 %126, 1
  store i32 %127, ptr %15, align 4, !tbaa !33
  br label %89, !llvm.loop !90

128:                                              ; preds = %98
  call void @llvm.lifetime.end.p0(i64 4, ptr %15) #10
  call void @llvm.lifetime.end.p0(i64 4, ptr %14) #10
  br label %129

129:                                              ; preds = %128, %64
  %130 = load ptr, ptr %9, align 8, !tbaa !48
  %131 = load i32, ptr %13, align 4, !tbaa !33
  %132 = call i32 @Vec_IntEntry(ptr noundef %130, i32 noundef %131)
  %133 = load i32, ptr %11, align 4, !tbaa !33
  %134 = add nsw i32 %133, %132
  store i32 %134, ptr %11, align 4, !tbaa !33
  br label %135

135:                                              ; preds = %129
  %136 = load i32, ptr %12, align 4, !tbaa !33
  %137 = add nsw i32 %136, 1
  store i32 %137, ptr %12, align 4, !tbaa !33
  br label %53, !llvm.loop !91

138:                                              ; preds = %62
  call void @llvm.lifetime.end.p0(i64 4, ptr %13) #10
  call void @llvm.lifetime.end.p0(i64 4, ptr %12) #10
  call void @llvm.lifetime.end.p0(i64 4, ptr %11) #10
  call void @llvm.lifetime.end.p0(i64 8, ptr %10) #10
  call void @llvm.lifetime.end.p0(i64 8, ptr %9) #10
  ret void
}