; Function Attrs: inlinehint nounwind uwtable
define internal fastcc void @Fxch_ManDivDoubleCube(ptr noundef captures(none) %0, i32 noundef %1, i32 noundef range(i32 0, 2) %2, i32 noundef range(i32 0, 2) %3) unnamed_addr #7 {
  %5 = getelementptr inbounds nuw i8, ptr %0, i64 40
  %6 = load ptr, ptr %5, align 8, !tbaa !51
  %7 = load ptr, ptr %0, align 8, !tbaa !3
  %8 = getelementptr i8, ptr %7, i64 8
  %.val = load ptr, ptr %8, align 8, !tbaa !39
  %9 = sext i32 %1 to i64
  %10 = getelementptr inbounds %struct.Vec_Int_t_, ptr %.val, i64 %9
  %11 = getelementptr i8, ptr %10, i64 4
  %.val72 = load i32, ptr %11, align 4, !tbaa !26
  %12 = icmp sgt i32 %.val72, 1
  br i1 %12, label %.lr.ph, label %.critedge

.lr.ph:                                           ; preds = %4
  %13 = getelementptr i8, ptr %10, i64 8
  %.val68 = load ptr, ptr %13, align 8, !tbaa !25
  %14 = getelementptr i8, ptr %6, i64 8
  %.val67 = load ptr, ptr %14, align 8, !tbaa !25
  %wide.trip.count = zext nneg i32 %.val72 to i64
  br label %15

15:                                               ; preds = %.lr.ph, %15
  %indvars.iv = phi i64 [ 1, %.lr.ph ], [ %indvars.iv.next, %15 ]
  %.05880 = phi i32 [ 0, %.lr.ph ], [ %21, %15 ]
  %16 = getelementptr inbounds nuw i32, ptr %.val68, i64 %indvars.iv
  %17 = load i32, ptr %16, align 4, !tbaa !60
  %18 = sext i32 %17 to i64
  %19 = getelementptr inbounds i32, ptr %.val67, i64 %18
  %20 = load i32, ptr %19, align 4, !tbaa !60
  %21 = add nsw i32 %20, %.05880
  %indvars.iv.next = add nuw nsw i64 %indvars.iv, 1
  %exitcond.not = icmp eq i64 %indvars.iv.next, %wide.trip.count
  br i1 %exitcond.not, label %.critedge, label %15, !llvm.loop !88

.critedge:                                        ; preds = %15, %4
  %.058.lcssa = phi i32 [ 0, %4 ], [ %21, %15 ]
  %22 = trunc nuw nsw i32 %3 to i8
  %.not.i = icmp eq i32 %2, 0
  %23 = getelementptr inbounds nuw i8, ptr %0, i64 16
  %24 = load ptr, ptr %23, align 8, !tbaa !70
  br i1 %.not.i, label %Fxch_ManSCAddRemove.exit, label %Fxch_ManSCAddRemove.exit.thread

Fxch_ManSCAddRemove.exit:                         ; preds = %.critedge
  %25 = tail call i32 @Fxch_SCHashTableRemove(ptr noundef %24, ptr noundef %7, i32 noundef %.058.lcssa, i32 noundef %1, i32 noundef 0, i32 noundef 0, i8 noundef signext range(i8 0, 2) %22) #21
  %.val7187 = load i32, ptr %11, align 4, !tbaa !26
  %26 = icmp sgt i32 %.val7187, 1
  br i1 %26, label %Fxch_ManSCAddRemove.exit75.us.preheader, label %.critedge2

Fxch_ManSCAddRemove.exit.thread:                  ; preds = %.critedge
  %27 = tail call i32 @Fxch_SCHashTableInsert(ptr noundef %24, ptr noundef %7, i32 noundef %.058.lcssa, i32 noundef %1, i32 noundef 0, i32 noundef 0, i8 noundef signext range(i8 0, 2) %22) #21
  %.val7187126 = load i32, ptr %11, align 4, !tbaa !26
  %28 = icmp sgt i32 %.val7187126, 1
  br i1 %28, label %Fxch_ManSCAddRemove.exit75.preheader, label %.critedge2

Fxch_ManSCAddRemove.exit75.preheader:             ; preds = %Fxch_ManSCAddRemove.exit.thread
  %29 = getelementptr i8, ptr %10, i64 8
  %30 = getelementptr i8, ptr %6, i64 8
  %31 = getelementptr inbounds nuw i8, ptr %0, i64 204
  %.val65.pre = load ptr, ptr %30, align 8, !tbaa !25
  br label %Fxch_ManSCAddRemove.exit75

Fxch_ManSCAddRemove.exit75.us.preheader:          ; preds = %Fxch_ManSCAddRemove.exit
  %32 = getelementptr i8, ptr %10, i64 8
  %33 = getelementptr i8, ptr %6, i64 8
  %34 = getelementptr inbounds nuw i8, ptr %0, i64 204
  %.val65.us.pre = load ptr, ptr %33, align 8, !tbaa !25
  br label %Fxch_ManSCAddRemove.exit75.us

Fxch_ManSCAddRemove.exit75.us:                    ; preds = %Fxch_ManSCAddRemove.exit75.us.preheader, %.critedge4.us
  %.val65.us = phi ptr [ %.val65.us.pre, %Fxch_ManSCAddRemove.exit75.us.preheader ], [ %.val61.us, %.critedge4.us ]
  %indvars.iv111 = phi i64 [ 1, %Fxch_ManSCAddRemove.exit75.us.preheader ], [ %indvars.iv.next112.pre-phi, %.critedge4.us ]
  %indvars.iv106 = phi i64 [ 2, %Fxch_ManSCAddRemove.exit75.us.preheader ], [ %indvars.iv.next107, %.critedge4.us ]
  %.191.us = phi i32 [ %.058.lcssa, %Fxch_ManSCAddRemove.exit75.us.preheader ], [ %50, %.critedge4.us ]
  %.val66.us = load ptr, ptr %32, align 8, !tbaa !25
  %35 = getelementptr inbounds nuw i32, ptr %.val66.us, i64 %indvars.iv111
  %36 = load i32, ptr %35, align 4, !tbaa !60
  %37 = sext i32 %36 to i64
  %38 = getelementptr inbounds i32, ptr %.val65.us, i64 %37
  %39 = load i32, ptr %38, align 4, !tbaa !60
  %40 = sub nsw i32 %.191.us, %39
  %41 = load ptr, ptr %23, align 8, !tbaa !70
  %42 = load ptr, ptr %0, align 8, !tbaa !3
  %43 = trunc nuw nsw i64 %indvars.iv111 to i32
  %44 = tail call i32 @Fxch_SCHashTableRemove(ptr noundef %41, ptr noundef %42, i32 noundef %40, i32 noundef %1, i32 noundef %43, i32 noundef 0, i8 noundef signext range(i8 0, 2) %22) #21
  %45 = load i32, ptr %34, align 4, !tbaa !89
  %46 = add nsw i32 %45, %44
  store i32 %46, ptr %34, align 4, !tbaa !89
  %.val70.us = load i32, ptr %11, align 4, !tbaa !26
  %47 = icmp sgt i32 %.val70.us, 2
  br i1 %47, label %.preheader.us, label %Fxch_ManSCAddRemove.exit75.us..critedge4.us_crit_edge

Fxch_ManSCAddRemove.exit75.us..critedge4.us_crit_edge: ; preds = %Fxch_ManSCAddRemove.exit75.us
  %.val61.us.pre = load ptr, ptr %33, align 8, !tbaa !25
  %.pre = add nuw nsw i64 %indvars.iv111, 1
  br label %.critedge4.us

.critedge4.us:                                    ; preds = %Fxch_ManSCAddRemove.exit78.us.us, %Fxch_ManSCAddRemove.exit75.us..critedge4.us_crit_edge, %.preheader.us
  %indvars.iv.next112.pre-phi = phi i64 [ %.pre, %Fxch_ManSCAddRemove.exit75.us..critedge4.us_crit_edge ], [ %53, %.preheader.us ], [ %53, %Fxch_ManSCAddRemove.exit78.us.us ]
  %.val71.us = phi i32 [ %.val70.us, %Fxch_ManSCAddRemove.exit75.us..critedge4.us_crit_edge ], [ %.val70.us, %.preheader.us ], [ %.val69.us.us, %Fxch_ManSCAddRemove.exit78.us.us ]
  %.val61.us = phi ptr [ %.val61.us.pre, %Fxch_ManSCAddRemove.exit75.us..critedge4.us_crit_edge ], [ %.val61.us.pre122, %.preheader.us ], [ %.val62.us.us, %Fxch_ManSCAddRemove.exit78.us.us ]
  %.2.us = phi i32 [ %40, %Fxch_ManSCAddRemove.exit75.us..critedge4.us_crit_edge ], [ %40, %.preheader.us ], [ %70, %Fxch_ManSCAddRemove.exit78.us.us ]
  %48 = getelementptr inbounds i32, ptr %.val61.us, i64 %37
  %49 = load i32, ptr %48, align 4, !tbaa !60
  %50 = add nsw i32 %49, %.2.us
  %51 = sext i32 %.val71.us to i64
  %52 = icmp slt i64 %indvars.iv.next112.pre-phi, %51
  %indvars.iv.next107 = add nuw nsw i64 %indvars.iv106, 1
  br i1 %52, label %Fxch_ManSCAddRemove.exit75.us, label %.critedge2, !llvm.loop !90

.preheader.us:                                    ; preds = %Fxch_ManSCAddRemove.exit75.us
  %53 = add nuw nsw i64 %indvars.iv111, 1
  %54 = zext nneg i32 %.val70.us to i64
  %55 = icmp slt i64 %53, %54
  %.val61.us.pre122 = load ptr, ptr %33, align 8, !tbaa !25
  br i1 %55, label %Fxch_ManSCAddRemove.exit78.us.us, label %.critedge4.us

Fxch_ManSCAddRemove.exit78.us.us:                 ; preds = %.preheader.us, %Fxch_ManSCAddRemove.exit78.us.us
  %.val63.us.us = phi ptr [ %.val62.us.us, %Fxch_ManSCAddRemove.exit78.us.us ], [ %.val61.us.pre122, %.preheader.us ]
  %indvars.iv108 = phi i64 [ %indvars.iv.next109, %Fxch_ManSCAddRemove.exit78.us.us ], [ %indvars.iv106, %.preheader.us ]
  %.383.us.us = phi i32 [ %70, %Fxch_ManSCAddRemove.exit78.us.us ], [ %40, %.preheader.us ]
  %.val64.us.us = load ptr, ptr %32, align 8, !tbaa !25
  %56 = getelementptr inbounds nuw i32, ptr %.val64.us.us, i64 %indvars.iv108
  %57 = load i32, ptr %56, align 4, !tbaa !60
  %58 = sext i32 %57 to i64
  %59 = getelementptr inbounds i32, ptr %.val63.us.us, i64 %58
  %60 = load i32, ptr %59, align 4, !tbaa !60
  %61 = sub nsw i32 %.383.us.us, %60
  %62 = load ptr, ptr %23, align 8, !tbaa !70
  %63 = load ptr, ptr %0, align 8, !tbaa !3
  %64 = trunc nuw nsw i64 %indvars.iv108 to i32
  %65 = tail call i32 @Fxch_SCHashTableRemove(ptr noundef %62, ptr noundef %63, i32 noundef %61, i32 noundef %1, i32 noundef %43, i32 noundef %64, i8 noundef signext range(i8 0, 2) %22) #21
  %66 = load i32, ptr %34, align 4, !tbaa !89
  %67 = add nsw i32 %66, %65
  store i32 %67, ptr %34, align 4, !tbaa !89
  %.val62.us.us = load ptr, ptr %33, align 8, !tbaa !25
  %68 = getelementptr inbounds i32, ptr %.val62.us.us, i64 %58
  %69 = load i32, ptr %68, align 4, !tbaa !60
  %70 = add nsw i32 %69, %61
  %indvars.iv.next109 = add nuw nsw i64 %indvars.iv108, 1
  %.val69.us.us = load i32, ptr %11, align 4, !tbaa !26
  %71 = trunc nuw i64 %indvars.iv.next109 to i32
  %72 = icmp sgt i32 %.val69.us.us, %71
  br i1 %72, label %Fxch_ManSCAddRemove.exit78.us.us, label %.critedge4.us, !llvm.loop !91

Fxch_ManSCAddRemove.exit75:                       ; preds = %Fxch_ManSCAddRemove.exit75.preheader, %.critedge4
  %.val65 = phi ptr [ %.val65.pre, %Fxch_ManSCAddRemove.exit75.preheader ], [ %.val61, %.critedge4 ]
  %indvars.iv102 = phi i64 [ 1, %Fxch_ManSCAddRemove.exit75.preheader ], [ %indvars.iv.next103.pre-phi, %.critedge4 ]
  %indvars.iv97 = phi i64 [ 2, %Fxch_ManSCAddRemove.exit75.preheader ], [ %indvars.iv.next98, %.critedge4 ]
  %.191 = phi i32 [ %.058.lcssa, %Fxch_ManSCAddRemove.exit75.preheader ], [ %108, %.critedge4 ]
  %.val66 = load ptr, ptr %29, align 8, !tbaa !25
  %73 = getelementptr inbounds nuw i32, ptr %.val66, i64 %indvars.iv102
  %74 = load i32, ptr %73, align 4, !tbaa !60
  %75 = sext i32 %74 to i64
  %76 = getelementptr inbounds i32, ptr %.val65, i64 %75
  %77 = load i32, ptr %76, align 4, !tbaa !60
  %78 = sub nsw i32 %.191, %77
  %79 = load ptr, ptr %23, align 8, !tbaa !70
  %80 = load ptr, ptr %0, align 8, !tbaa !3
  %81 = trunc nuw nsw i64 %indvars.iv102 to i32
  %82 = tail call i32 @Fxch_SCHashTableInsert(ptr noundef %79, ptr noundef %80, i32 noundef %78, i32 noundef %1, i32 noundef %81, i32 noundef 0, i8 noundef signext range(i8 0, 2) %22) #21
  %83 = load i32, ptr %31, align 4, !tbaa !89
  %84 = add nsw i32 %83, %82
  store i32 %84, ptr %31, align 4, !tbaa !89
  %.val70 = load i32, ptr %11, align 4, !tbaa !26
  %85 = icmp sgt i32 %.val70, 2
  br i1 %85, label %.preheader, label %Fxch_ManSCAddRemove.exit75..critedge4_crit_edge

Fxch_ManSCAddRemove.exit75..critedge4_crit_edge:  ; preds = %Fxch_ManSCAddRemove.exit75
  %.val61.pre = load ptr, ptr %30, align 8, !tbaa !25
  %.pre125 = add nuw nsw i64 %indvars.iv102, 1
  br label %.critedge4

.preheader:                                       ; preds = %Fxch_ManSCAddRemove.exit75
  %86 = add nuw nsw i64 %indvars.iv102, 1
  %87 = zext nneg i32 %.val70 to i64
  %88 = icmp slt i64 %86, %87
  %.val61.pre117 = load ptr, ptr %30, align 8, !tbaa !25
  br i1 %88, label %Fxch_ManSCAddRemove.exit78, label %.critedge4

Fxch_ManSCAddRemove.exit78:                       ; preds = %.preheader, %Fxch_ManSCAddRemove.exit78
  %.val63 = phi ptr [ %.val62, %Fxch_ManSCAddRemove.exit78 ], [ %.val61.pre117, %.preheader ]
  %indvars.iv99 = phi i64 [ %indvars.iv.next100, %Fxch_ManSCAddRemove.exit78 ], [ %indvars.iv97, %.preheader ]
  %.383 = phi i32 [ %103, %Fxch_ManSCAddRemove.exit78 ], [ %78, %.preheader ]
  %.val64 = load ptr, ptr %29, align 8, !tbaa !25
  %89 = getelementptr inbounds nuw i32, ptr %.val64, i64 %indvars.iv99
  %90 = load i32, ptr %89, align 4, !tbaa !60
  %91 = sext i32 %90 to i64
  %92 = getelementptr inbounds i32, ptr %.val63, i64 %91
  %93 = load i32, ptr %92, align 4, !tbaa !60
  %94 = sub nsw i32 %.383, %93
  %95 = load ptr, ptr %23, align 8, !tbaa !70
  %96 = load ptr, ptr %0, align 8, !tbaa !3
  %97 = trunc nuw nsw i64 %indvars.iv99 to i32
  %98 = tail call i32 @Fxch_SCHashTableInsert(ptr noundef %95, ptr noundef %96, i32 noundef %94, i32 noundef %1, i32 noundef %81, i32 noundef %97, i8 noundef signext range(i8 0, 2) %22) #21
  %99 = load i32, ptr %31, align 4, !tbaa !89
  %100 = add nsw i32 %99, %98
  store i32 %100, ptr %31, align 4, !tbaa !89
  %.val62 = load ptr, ptr %30, align 8, !tbaa !25
  %101 = getelementptr inbounds i32, ptr %.val62, i64 %91
  %102 = load i32, ptr %101, align 4, !tbaa !60
  %103 = add nsw i32 %102, %94
  %indvars.iv.next100 = add nuw nsw i64 %indvars.iv99, 1
  %.val69 = load i32, ptr %11, align 4, !tbaa !26
  %104 = trunc nuw i64 %indvars.iv.next100 to i32
  %105 = icmp sgt i32 %.val69, %104
  br i1 %105, label %Fxch_ManSCAddRemove.exit78, label %.critedge4, !llvm.loop !91

.critedge4:                                       ; preds = %Fxch_ManSCAddRemove.exit78, %Fxch_ManSCAddRemove.exit75..critedge4_crit_edge, %.preheader
  %indvars.iv.next103.pre-phi = phi i64 [ %.pre125, %Fxch_ManSCAddRemove.exit75..critedge4_crit_edge ], [ %86, %.preheader ], [ %86, %Fxch_ManSCAddRemove.exit78 ]
  %.val71 = phi i32 [ %.val70, %Fxch_ManSCAddRemove.exit75..critedge4_crit_edge ], [ %.val70, %.preheader ], [ %.val69, %Fxch_ManSCAddRemove.exit78 ]
  %.val61 = phi ptr [ %.val61.pre, %Fxch_ManSCAddRemove.exit75..critedge4_crit_edge ], [ %.val61.pre117, %.preheader ], [ %.val62, %Fxch_ManSCAddRemove.exit78 ]
  %.2 = phi i32 [ %78, %Fxch_ManSCAddRemove.exit75..critedge4_crit_edge ], [ %78, %.preheader ], [ %103, %Fxch_ManSCAddRemove.exit78 ]
  %106 = getelementptr inbounds i32, ptr %.val61, i64 %75
  %107 = load i32, ptr %106, align 4, !tbaa !60
  %108 = add nsw i32 %107, %.2
  %109 = sext i32 %.val71 to i64
  %110 = icmp slt i64 %indvars.iv.next103.pre-phi, %109
  %indvars.iv.next98 = add nuw nsw i64 %indvars.iv97, 1
  br i1 %110, label %Fxch_ManSCAddRemove.exit75, label %.critedge2, !llvm.loop !90

.critedge2:                                       ; preds = %.critedge4, %.critedge4.us, %Fxch_ManSCAddRemove.exit.thread, %Fxch_ManSCAddRemove.exit
  ret void
}